(lp0
(S'run'
p1
S'gnome-terminal'
p2
tp3
a(S'orientation'
p4
Vhorizontal
p5
tp6
a(g1
S'gnome-terminal'
p7
tp8
a(g4
Vvertical
p9
tp10
a(g1
S'gnome-terminal'
p11
tp12
a(S'resize'
p13
(I641
I289
tp14
tp15
a(g4
Vhorizontal
p16
tp17
a(g1
S'gnome-terminal'
p18
tp19
a(g13
(I510
I289
tp20
tp21
a.