(lp0
(S'run'
p1
S'gnome-terminal'
p2
tp3
a(S'focus'
p4
(I0
I18
tp5
tp6
a(S'layout'
p7
Vhorizontal
p8
tp9
a(g1
S'gnome-terminal'
p10
tp11
a(g4
(I960
I18
tp12
tp13
a(g7
Vvertical
p14
tp15
a(g1
S'gnome-terminal'
p16
tp17
a(g4
(I960
I549
tp18
tp19
a(g7
Vvertical
p20
tp21
a.